Certificate:
    Data:
        Version: 3 (0x2)
        Serial Number: 4099 (0x1003)
    Signature Algorithm: sha256WithRSAEncryption
        Issuer: C=TW, ST=Taiwan, L=HsinChu, O=ZyXEL communication corp., OU=CABC, CN=myZyXELCloud intermediate CA/emailAddress=cloudadm@zyxel.com.tw
        Validity
            Not Before: Jul 22 10:36:51 2015 GMT
            Not After : Jul 21 10:36:51 2017 GMT
        Subject: C=TW, ST=Taiwan, L=HsinChu, O=ZyXEL communication corp., OU=CABC, CN=AppProduction/emailAddress=cloudadm@zyxel.com.tw
        Subject Public Key Info:
            Public Key Algorithm: rsaEncryption
                Public-Key: (2048 bit)
                Modulus:
                    00:cc:1d:99:32:f3:13:77:8c:13:b5:58:09:8a:fd:
                    8a:b0:9e:43:bb:f7:19:52:8e:15:9c:78:f0:23:72:
                    fa:fd:3f:73:88:40:61:20:eb:f0:ab:fd:a6:13:83:
                    b9:16:88:58:a1:3b:2f:64:86:44:87:3d:de:98:3c:
                    d0:03:f1:5a:ae:41:96:98:d7:28:76:d6:39:83:75:
                    45:2d:cd:3f:67:e3:25:3b:65:23:b2:c8:7e:d4:a6:
                    7b:2e:3e:94:d7:49:dc:67:8e:8b:d4:c9:f2:96:22:
                    6b:c1:43:8e:b1:66:1c:38:55:af:c1:90:35:b0:bb:
                    8f:37:b1:dc:fe:41:6f:5c:1e:09:e1:07:74:80:28:
                    38:a6:39:51:ae:75:c8:34:ca:5d:b9:ce:ba:ec:2d:
                    dc:92:3b:ca:f3:5d:9d:03:36:fd:f5:66:8d:ea:9e:
                    3f:90:d3:7f:fb:e8:a3:d9:5e:43:68:e2:44:92:34:
                    da:12:1f:12:4c:f3:63:dc:27:e4:81:85:5c:74:a2:
                    1e:19:79:06:96:72:2a:06:18:6b:1c:9c:07:25:68:
                    25:6b:e6:74:97:b8:01:fd:d4:84:d3:dc:8b:dc:94:
                    4e:4e:80:51:bd:71:4b:e4:11:64:ed:48:ee:43:34:
                    41:06:35:37:42:0d:6f:f2:5b:61:93:89:e9:04:f6:
                    ee:99
                Exponent: 65537 (0x10001)
        X509v3 extensions:
            X509v3 Basic Constraints: 
                CA:FALSE
            Netscape Comment: 
                OpenSSL Generated Certificate
            X509v3 Subject Key Identifier: 
                1C:50:BE:4B:1D:63:D2:B3:C3:65:37:E8:00:62:4A:FF:AB:AE:BA:01
            X509v3 Authority Key Identifier: 
                keyid:D0:71:FA:B9:7F:35:82:E8:99:9B:03:A1:33:C7:58:29:07:48:7E:26

    Signature Algorithm: sha256WithRSAEncryption
         90:1f:4f:63:dc:8c:89:6c:99:2e:ef:6c:93:01:01:f6:4c:6a:
         94:41:97:c5:ac:33:a7:cd:96:c9:7e:af:c5:79:1c:0a:b7:29:
         e4:a6:cc:36:d3:76:66:52:d5:80:44:52:bc:59:63:0d:94:b5:
         be:f4:78:8f:48:0b:29:3b:83:c5:78:8e:9a:8d:6e:f7:24:fa:
         92:45:8f:9b:fa:04:aa:ea:f9:59:eb:98:e8:86:9d:30:49:e4:
         e2:1c:0c:7f:df:a2:e3:56:72:72:99:25:b9:ed:1d:49:d2:9f:
         38:4f:81:3e:1c:52:55:c4:a9:bd:57:02:4b:eb:05:da:ce:6d:
         d3:c5:85:a8:13:74:cb:66:db:b3:f0:1e:e3:fc:9b:4c:5e:7b:
         d5:96:65:ff:ba:78:de:c0:14:35:19:12:11:72:35:25:18:92:
         70:fc:c2:e9:0f:ad:d0:ab:4b:08:65:09:51:96:d4:b6:48:5a:
         4d:85:15:0b:d2:12:8c:59:2c:30:6a:e0:a3:ec:d3:e2:29:00:
         9c:9d:4f:9a:d2:41:35:b3:c9:e8:8b:06:0b:2b:be:25:26:93:
         b0:ce:fd:00:08:de:2e:04:af:be:d0:f7:b5:53:3d:9b:35:64:
         f5:f6:2b:3b:84:74:c2:45:7f:ab:39:91:c1:0a:8a:9a:30:43:
         14:5b:c4:d3:17:70:4e:d3:36:20:d0:22:e9:3e:0e:c2:e8:15:
         c6:a8:24:ed:bb:ab:42:89:6d:a6:ad:ee:9d:05:73:f9:2a:c9:
         de:06:ac:36:c1:2e:59:41:ea:fb:d3:99:26:e6:f3:a6:8e:e4:
         3f:41:fa:1f:2e:e7:70:8f:c7:3a:ae:be:a2:15:7b:73:fa:ef:
         9a:4b:ac:c3:ef:f8:7f:a3:e8:bc:0c:a6:9e:81:03:ea:ab:6e:
         de:1e:75:7a:8c:fd:09:d2:96:db:7e:26:c0:81:80:71:be:66:
         b4:56:db:c1:94:3a:62:ab:80:38:8d:89:23:f8:c0:5e:b1:ce:
         84:50:5b:d9:42:46:ad:fe:78:8d:cc:c9:a6:fe:f9:56:96:b0:
         69:3f:1d:9a:85:f5:62:7e:24:c1:9f:f0:0e:5e:c2:c7:83:16:
         1b:fb:d5:e0:57:03:14:dd:78:86:f5:b2:51:38:44:98:71:e8:
         84:24:d3:59:29:11:dc:e5:b3:39:bb:85:87:2d:91:21:39:24:
         f0:16:f1:54:26:ea:6d:04:66:63:d9:29:a0:3f:95:e8:a4:44:
         ef:4c:ef:a4:00:79:ee:94:2d:13:19:90:a5:09:1f:24:ce:2d:
         f0:b0:da:2a:d5:a9:a8:c6:4e:bb:9a:05:05:4d:56:52:6f:d2:
         f3:34:e0:09:49:b3:52:57
-----BEGIN CERTIFICATE-----
MIIFSjCCAzKgAwIBAgICEAMwDQYJKoZIhvcNAQELBQAwgbAxCzAJBgNVBAYTAlRX
MQ8wDQYDVQQIDAZUYWl3YW4xEDAOBgNVBAcMB0hzaW5DaHUxIjAgBgNVBAoMGVp5
WEVMIGNvbW11bmljYXRpb24gY29ycC4xDTALBgNVBAsMBENBQkMxJTAjBgNVBAMM
HG15WnlYRUxDbG91ZCBpbnRlcm1lZGlhdGUgQ0ExJDAiBgkqhkiG9w0BCQEWFWNs
b3VkYWRtQHp5eGVsLmNvbS50dzAeFw0xNTA3MjIxMDM2NTFaFw0xNzA3MjExMDM2
NTFaMIGhMQswCQYDVQQGEwJUVzEPMA0GA1UECAwGVGFpd2FuMRAwDgYDVQQHDAdI
c2luQ2h1MSIwIAYDVQQKDBlaeVhFTCBjb21tdW5pY2F0aW9uIGNvcnAuMQ0wCwYD
VQQLDARDQUJDMRYwFAYDVQQDDA1BcHBQcm9kdWN0aW9uMSQwIgYJKoZIhvcNAQkB
FhVjbG91ZGFkbUB6eXhlbC5jb20udHcwggEiMA0GCSqGSIb3DQEBAQUAA4IBDwAw
ggEKAoIBAQDMHZky8xN3jBO1WAmK/YqwnkO79xlSjhWcePAjcvr9P3OIQGEg6/Cr
/aYTg7kWiFihOy9khkSHPd6YPNAD8VquQZaY1yh21jmDdUUtzT9n4yU7ZSOyyH7U
pnsuPpTXSdxnjovUyfKWImvBQ46xZhw4Va/BkDWwu483sdz+QW9cHgnhB3SAKDim
OVGudcg0yl25zrrsLdySO8rzXZ0DNv31Zo3qnj+Q03/76KPZXkNo4kSSNNoSHxJM
82PcJ+SBhVx0oh4ZeQaWcioGGGscnAclaCVr5nSXuAH91ITT3IvclE5OgFG9cUvk
EWTtSO5DNEEGNTdCDW/yW2GTiekE9u6ZAgMBAAGjezB5MAkGA1UdEwQCMAAwLAYJ
YIZIAYb4QgENBB8WHU9wZW5TU0wgR2VuZXJhdGVkIENlcnRpZmljYXRlMB0GA1Ud
DgQWBBQcUL5LHWPSs8NlN+gAYkr/q666ATAfBgNVHSMEGDAWgBTQcfq5fzWC6Jmb
A6Ezx1gpB0h+JjANBgkqhkiG9w0BAQsFAAOCAgEAkB9PY9yMiWyZLu9skwEB9kxq
lEGXxawzp82WyX6vxXkcCrcp5KbMNtN2ZlLVgERSvFljDZS1vvR4j0gLKTuDxXiO
mo1u9yT6kkWPm/oEqur5WeuY6IadMEnk4hwMf9+i41Zycpklue0dSdKfOE+BPhxS
VcSpvVcCS+sF2s5t08WFqBN0y2bbs/Ae4/ybTF571ZZl/7p43sAUNRkSEXI1JRiS
cPzC6Q+t0KtLCGUJUZbUtkhaTYUVC9ISjFksMGrgo+zT4ikAnJ1PmtJBNbPJ6IsG
Cyu+JSaTsM79AAjeLgSvvtD3tVM9mzVk9fYrO4R0wkV/qzmRwQqKmjBDFFvE0xdw
TtM2INAi6T4OwugVxqgk7burQoltpq3unQVz+SrJ3gasNsEuWUHq+9OZJubzpo7k
P0H6Hy7ncI/HOq6+ohV7c/rvmkusw+/4f6PovAymnoED6qtu3h51eoz9CdKW234m
wIGAcb5mtFbbwZQ6YquAOI2JI/jAXrHOhFBb2UJGrf54jczJpv75VpawaT8dmoX1
Yn4kwZ/wDl7Cx4MWG/vV4FcDFN14hvWyUThEmHHohCTTWSkR3OWzObuFhy2RITkk
8BbxVCbqbQRmY9kpoD+V6KRE70zvpAB57pQtExmQpQkfJM4t8LDaKtWpqMZOu5oF
BU1WUm/S8zTgCUmzUlc=
-----END CERTIFICATE-----
